target datalayout = "e-m:e-p270:32:32-p271:32:32-p272:64:64-i64:64-i128:128-f80:128-n8:16:32:64-S128"
target triple = "x86_64-pc-linux-gnu"

%struct.build_options_data = type { ptr, i64 }

; Function Attrs: nounwind sspstrong uwtable
define internal i64 @build_options(i64 noundef %0) #0 {
  %2 = alloca i64, align 8
  %3 = alloca ptr, align 8
  store i64 %0, ptr %2, align 8, !tbaa !7
  call void @llvm.lifetime.start.p0(i64 8, ptr %3) #24
  %4 = load i64, ptr %2, align 8, !tbaa !7
  %5 = inttoptr i64 %4 to ptr
  store ptr %5, ptr %3, align 8, !tbaa !76
  %6 = load ptr, ptr %3, align 8, !tbaa !76
  %7 = getelementptr inbounds nuw %struct.build_options_data, ptr %6, i32 0, i32 1
  %8 = load i64, ptr %7, align 8, !tbaa !75
  %9 = load ptr, ptr %3, align 8, !tbaa !76
  %10 = getelementptr inbounds nuw %struct.build_options_data, ptr %9, i32 0, i32 0
  %11 = load ptr, ptr %10, align 8, !tbaa !73
  %12 = ptrtoint ptr %11 to i64
  call void @rb_hash_foreach(i64 noundef %8, ptr noundef @build_options_i, i64 noundef %12)
  call void @llvm.lifetime.end.p0(i64 8, ptr %3) #24
  ret i64 4
}