; Function Attrs: nounwind sspstrong uwtable
define internal noundef i64 @build_options(i64 noundef %0) #0 {
  %2 = inttoptr i64 %0 to ptr
  %3 = getelementptr inbounds nuw i8, ptr %2, i64 8
  %4 = load i64, ptr %3, align 8, !tbaa !24
  %5 = load ptr, ptr %2, align 8, !tbaa !21
  %6 = ptrtoint ptr %5 to i64
  tail call void @rb_hash_foreach(i64 noundef %4, ptr noundef nonnull @build_options_i, i64 noundef %6) #9
  ret i64 4
}